; Function Attrs: nounwind uwtable
define noalias nonnull ptr @l_Lean_Compiler_LCNF_Pass_mkPerDeclaration(ptr noundef %0, ptr noundef %1, i8 noundef zeroext %2, ptr noundef %3) local_unnamed_addr #1 {
  tail call void @lean_inc_heartbeat() #6
  %5 = tail call noalias ptr @mi_malloc_small(i64 noundef 32) #6
  %6 = icmp eq ptr %5, null
  br i1 %6, label %7, label %lean_alloc_closure.exit

7:                                                ; preds = %4
  tail call void @lean_internal_panic_out_of_memory() #7
  unreachable

lean_alloc_closure.exit:                          ; preds = %4
  %8 = getelementptr inbounds nuw i8, ptr %5, i64 4
  store i32 1, ptr %5, align 4, !tbaa !4
  store i32 -184549344, ptr %8, align 4
  %9 = getelementptr inbounds nuw i8, ptr %5, i64 8
  store ptr @l_Lean_Compiler_LCNF_Pass_mkPerDeclaration___elambda__1, ptr %9, align 8, !tbaa !10
  %10 = getelementptr inbounds nuw i8, ptr %5, i64 16
  store i16 7, ptr %10, align 8, !tbaa !14
  %11 = getelementptr inbounds nuw i8, ptr %5, i64 18
  store i16 1, ptr %11, align 2, !tbaa !14
  %12 = getelementptr inbounds nuw i8, ptr %5, i64 24
  store ptr %1, ptr %12, align 8, !tbaa !10
  tail call void @lean_inc_heartbeat() #6
  %13 = tail call noalias ptr @mi_malloc_small(i64 noundef 40) #6
  %14 = icmp eq ptr %13, null
  br i1 %14, label %15, label %lean_alloc_ctor.exit

15:                                               ; preds = %lean_alloc_closure.exit
  tail call void @lean_internal_panic_out_of_memory() #7
  unreachable

lean_alloc_ctor.exit:                             ; preds = %lean_alloc_closure.exit
  %16 = getelementptr inbounds nuw i8, ptr %13, i64 4
  %17 = getelementptr inbounds nuw i8, ptr %13, i64 32
  store i64 0, ptr %17, align 8, !tbaa !12
  store i32 1, ptr %13, align 4, !tbaa !4
  store i32 196648, ptr %16, align 4
  %18 = getelementptr inbounds nuw i8, ptr %13, i64 8
  store ptr %3, ptr %18, align 8, !tbaa !10
  %19 = getelementptr inbounds nuw i8, ptr %13, i64 16
  store ptr %0, ptr %19, align 8, !tbaa !10
  %20 = getelementptr inbounds nuw i8, ptr %13, i64 24
  store ptr %5, ptr %20, align 8, !tbaa !10
  store i8 %2, ptr %17, align 1, !tbaa !16
  %21 = getelementptr inbounds nuw i8, ptr %13, i64 33
  store i8 %2, ptr %21, align 1, !tbaa !16
  ret ptr %13
}